; Function Attrs: nounwind uwtable
define void @Java_sun_nio_ch_Net_shutdown(ptr noundef %0, ptr nocapture noundef readnone %1, ptr noundef %2, i32 noundef %3) local_unnamed_addr #0 {
  %5 = icmp eq i32 %3, 0
  %6 = icmp eq i32 %3, 1
  %7 = select i1 %6, i32 1, i32 2
  %8 = select i1 %5, i32 0, i32 %7
  %9 = tail call i32 @fdval(ptr noundef %0, ptr noundef %2) #7
  %10 = tail call i32 @shutdown(i32 noundef %9, i32 noundef %8) #7
  %11 = icmp slt i32 %10, 0
  br i1 %11, label %12, label %handleSocketError.exit

12:                                               ; preds = %4
  %13 = tail call ptr @__errno_location() #6
  %14 = load i32, ptr %13, align 4
  switch i32 %14, label %18 [
    i32 107, label %handleSocketError.exit
    i32 115, label %handleSocketError.exit
    i32 71, label %19
    i32 111, label %15
    i32 110, label %15
    i32 13, label %17
    i32 113, label %16
    i32 98, label %17
    i32 99, label %17
  ]

15:                                               ; preds = %12, %12
  br label %19

16:                                               ; preds = %12
  br label %19

17:                                               ; preds = %12, %12, %12
  br label %19

18:                                               ; preds = %12
  br label %19

19:                                               ; preds = %12, %18, %17, %16, %15
  %.0.i.i = phi ptr [ @.str.3, %18 ], [ @.str.17, %17 ], [ @.str.16, %16 ], [ @.str.15, %15 ], [ @.str.14, %12 ]
  tail call void @JNU_ThrowByNameWithLastError(ptr noundef %0, ptr noundef nonnull %.0.i.i, ptr noundef nonnull @.str.18) #7
  br label %handleSocketError.exit

handleSocketError.exit:                           ; preds = %12, %12, %19, %4
  ret void
}